target datalayout = "e-m:e-p270:32:32-p271:32:32-p272:64:64-i64:64-i128:128-f80:128-n8:16:32:64-S128"
target triple = "x86_64-pc-linux-gnu"

%struct.bn_mont_ctx_st = type { i32, %struct.bignum_st, %struct.bignum_st, %struct.bignum_st, [2 x i64], i32 }
%struct.bignum_st = type { ptr, i32, i32, i32, i32 }

; Function Attrs: nounwind uwtable
define i32 @bn_mul_mont_fixed_top(ptr noundef %0, ptr noundef %1, ptr noundef %2, ptr noundef %3, ptr noundef %4) #0 {
  %6 = alloca i32, align 4
  %7 = alloca ptr, align 8
  %8 = alloca ptr, align 8
  %9 = alloca ptr, align 8
  %10 = alloca ptr, align 8
  %11 = alloca ptr, align 8
  %12 = alloca ptr, align 8
  %13 = alloca i32, align 4
  %14 = alloca i32, align 4
  %15 = alloca i32, align 4
  store ptr %0, ptr %7, align 8, !tbaa !3
  store ptr %1, ptr %8, align 8, !tbaa !3
  store ptr %2, ptr %9, align 8, !tbaa !3
  store ptr %3, ptr %10, align 8, !tbaa !8
  store ptr %4, ptr %11, align 8, !tbaa !10
  call void @llvm.lifetime.start.p0(i64 8, ptr %12) #3
  call void @llvm.lifetime.start.p0(i64 4, ptr %13) #3
  store i32 0, ptr %13, align 4, !tbaa !12
  call void @llvm.lifetime.start.p0(i64 4, ptr %14) #3
  %16 = load ptr, ptr %10, align 8, !tbaa !8
  %17 = getelementptr inbounds nuw %struct.bn_mont_ctx_st, ptr %16, i32 0, i32 2
  %18 = getelementptr inbounds nuw %struct.bignum_st, ptr %17, i32 0, i32 1
  %19 = load i32, ptr %18, align 8, !tbaa !14
  store i32 %19, ptr %14, align 4, !tbaa !12
  %20 = load i32, ptr %14, align 4, !tbaa !12
  %21 = icmp sgt i32 %20, 1
  br i1 %21, label %22, label %81

22:                                               ; preds = %5
  %23 = load i32, ptr %14, align 4, !tbaa !12
  %24 = icmp sle i32 %23, 512
  br i1 %24, label %25, label %81

25:                                               ; preds = %22
  %26 = load ptr, ptr %8, align 8, !tbaa !3
  %27 = getelementptr inbounds nuw %struct.bignum_st, ptr %26, i32 0, i32 1
  %28 = load i32, ptr %27, align 8, !tbaa !18
  %29 = load i32, ptr %14, align 4, !tbaa !12
  %30 = icmp eq i32 %28, %29
  br i1 %30, label %31, label %81

31:                                               ; preds = %25
  %32 = load ptr, ptr %9, align 8, !tbaa !3
  %33 = getelementptr inbounds nuw %struct.bignum_st, ptr %32, i32 0, i32 1
  %34 = load i32, ptr %33, align 8, !tbaa !18
  %35 = load i32, ptr %14, align 4, !tbaa !12
  %36 = icmp eq i32 %34, %35
  br i1 %36, label %37, label %81

37:                                               ; preds = %31
  %38 = load ptr, ptr %7, align 8, !tbaa !3
  %39 = load i32, ptr %14, align 4, !tbaa !12
  %40 = call ptr @bn_wexpand(ptr noundef %38, i32 noundef %39)
  %41 = icmp eq ptr %40, null
  br i1 %41, label %42, label %43

42:                                               ; preds = %37
  store i32 0, ptr %6, align 4
  store i32 1, ptr %15, align 4
  br label %132

43:                                               ; preds = %37
  %44 = load ptr, ptr %7, align 8, !tbaa !3
  %45 = getelementptr inbounds nuw %struct.bignum_st, ptr %44, i32 0, i32 0
  %46 = load ptr, ptr %45, align 8, !tbaa !19
  %47 = load ptr, ptr %8, align 8, !tbaa !3
  %48 = getelementptr inbounds nuw %struct.bignum_st, ptr %47, i32 0, i32 0
  %49 = load ptr, ptr %48, align 8, !tbaa !19
  %50 = load ptr, ptr %9, align 8, !tbaa !3
  %51 = getelementptr inbounds nuw %struct.bignum_st, ptr %50, i32 0, i32 0
  %52 = load ptr, ptr %51, align 8, !tbaa !19
  %53 = load ptr, ptr %10, align 8, !tbaa !8
  %54 = getelementptr inbounds nuw %struct.bn_mont_ctx_st, ptr %53, i32 0, i32 2
  %55 = getelementptr inbounds nuw %struct.bignum_st, ptr %54, i32 0, i32 0
  %56 = load ptr, ptr %55, align 8, !tbaa !20
  %57 = load ptr, ptr %10, align 8, !tbaa !8
  %58 = getelementptr inbounds nuw %struct.bn_mont_ctx_st, ptr %57, i32 0, i32 4
  %59 = getelementptr inbounds [2 x i64], ptr %58, i64 0, i64 0
  %60 = load i32, ptr %14, align 4, !tbaa !12
  %61 = call i32 @bn_mul_mont(ptr noundef %46, ptr noundef %49, ptr noundef %52, ptr noundef %56, ptr noundef %59, i32 noundef %60)
  %62 = icmp ne i32 %61, 0
  br i1 %62, label %63, label %80

63:                                               ; preds = %43
  %64 = load ptr, ptr %8, align 8, !tbaa !3
  %65 = getelementptr inbounds nuw %struct.bignum_st, ptr %64, i32 0, i32 3
  %66 = load i32, ptr %65, align 8, !tbaa !21
  %67 = load ptr, ptr %9, align 8, !tbaa !3
  %68 = getelementptr inbounds nuw %struct.bignum_st, ptr %67, i32 0, i32 3
  %69 = load i32, ptr %68, align 8, !tbaa !21
  %70 = xor i32 %66, %69
  %71 = load ptr, ptr %7, align 8, !tbaa !3
  %72 = getelementptr inbounds nuw %struct.bignum_st, ptr %71, i32 0, i32 3
  store i32 %70, ptr %72, align 8, !tbaa !21
  %73 = load i32, ptr %14, align 4, !tbaa !12
  %74 = load ptr, ptr %7, align 8, !tbaa !3
  %75 = getelementptr inbounds nuw %struct.bignum_st, ptr %74, i32 0, i32 1
  store i32 %73, ptr %75, align 8, !tbaa !18
  %76 = load ptr, ptr %7, align 8, !tbaa !3
  %77 = getelementptr inbounds nuw %struct.bignum_st, ptr %76, i32 0, i32 4
  %78 = load i32, ptr %77, align 4, !tbaa !22
  %79 = or i32 %78, 0
  store i32 %79, ptr %77, align 4, !tbaa !22
  store i32 1, ptr %6, align 4
  store i32 1, ptr %15, align 4
  br label %132

80:                                               ; preds = %43
  br label %81

81:                                               ; preds = %80, %31, %25, %22, %5
  %82 = load ptr, ptr %8, align 8, !tbaa !3
  %83 = getelementptr inbounds nuw %struct.bignum_st, ptr %82, i32 0, i32 1
  %84 = load i32, ptr %83, align 8, !tbaa !18
  %85 = load ptr, ptr %9, align 8, !tbaa !3
  %86 = getelementptr inbounds nuw %struct.bignum_st, ptr %85, i32 0, i32 1
  %87 = load i32, ptr %86, align 8, !tbaa !18
  %88 = add nsw i32 %84, %87
  %89 = load i32, ptr %14, align 4, !tbaa !12
  %90 = mul nsw i32 2, %89
  %91 = icmp sgt i32 %88, %90
  br i1 %91, label %92, label %93

92:                                               ; preds = %81
  store i32 0, ptr %6, align 4
  store i32 1, ptr %15, align 4
  br label %132

93:                                               ; preds = %81
  %94 = load ptr, ptr %11, align 8, !tbaa !10
  call void @BN_CTX_start(ptr noundef %94)
  %95 = load ptr, ptr %11, align 8, !tbaa !10
  %96 = call ptr @BN_CTX_get(ptr noundef %95)
  store ptr %96, ptr %12, align 8, !tbaa !3
  %97 = load ptr, ptr %12, align 8, !tbaa !3
  %98 = icmp eq ptr %97, null
  br i1 %98, label %99, label %100

99:                                               ; preds = %93
  br label %129

100:                                              ; preds = %93
  %101 = load ptr, ptr %8, align 8, !tbaa !3
  %102 = load ptr, ptr %9, align 8, !tbaa !3
  %103 = icmp eq ptr %101, %102
  br i1 %103, label %104, label %112

104:                                              ; preds = %100
  %105 = load ptr, ptr %12, align 8, !tbaa !3
  %106 = load ptr, ptr %8, align 8, !tbaa !3
  %107 = load ptr, ptr %11, align 8, !tbaa !10
  %108 = call i32 @bn_sqr_fixed_top(ptr noundef %105, ptr noundef %106, ptr noundef %107)
  %109 = icmp ne i32 %108, 0
  br i1 %109, label %111, label %110

110:                                              ; preds = %104
  br label %129

111:                                              ; preds = %104
  br label %121

112:                                              ; preds = %100
  %113 = load ptr, ptr %12, align 8, !tbaa !3
  %114 = load ptr, ptr %8, align 8, !tbaa !3
  %115 = load ptr, ptr %9, align 8, !tbaa !3
  %116 = load ptr, ptr %11, align 8, !tbaa !10
  %117 = call i32 @bn_mul_fixed_top(ptr noundef %113, ptr noundef %114, ptr noundef %115, ptr noundef %116)
  %118 = icmp ne i32 %117, 0
  br i1 %118, label %120, label %119

119:                                              ; preds = %112
  br label %129

120:                                              ; preds = %112
  br label %121

121:                                              ; preds = %120, %111
  %122 = load ptr, ptr %7, align 8, !tbaa !3
  %123 = load ptr, ptr %12, align 8, !tbaa !3
  %124 = load ptr, ptr %10, align 8, !tbaa !8
  %125 = call i32 @bn_from_montgomery_word(ptr noundef %122, ptr noundef %123, ptr noundef %124)
  %126 = icmp ne i32 %125, 0
  br i1 %126, label %128, label %127

127:                                              ; preds = %121
  br label %129

128:                                              ; preds = %121
  store i32 1, ptr %13, align 4, !tbaa !12
  br label %129

129:                                              ; preds = %128, %127, %119, %110, %99
  %130 = load ptr, ptr %11, align 8, !tbaa !10
  call void @BN_CTX_end(ptr noundef %130)
  %131 = load i32, ptr %13, align 4, !tbaa !12
  store i32 %131, ptr %6, align 4
  store i32 1, ptr %15, align 4
  br label %132

132:                                              ; preds = %129, %92, %63, %42
  call void @llvm.lifetime.end.p0(i64 4, ptr %14) #3
  call void @llvm.lifetime.end.p0(i64 4, ptr %13) #3
  call void @llvm.lifetime.end.p0(i64 8, ptr %12) #3
  %133 = load i32, ptr %6, align 4
  ret i32 %133
}