; Function Attrs: nounwind uwtable
define range(i32 0, 2) i32 @bn_mul_mont_fixed_top(ptr noundef %0, ptr noundef %1, ptr noundef %2, ptr noundef %3, ptr noundef %4) local_unnamed_addr #0 {
  %6 = getelementptr inbounds nuw i8, ptr %3, i64 32
  %7 = getelementptr inbounds nuw i8, ptr %3, i64 40
  %8 = load i32, ptr %7, align 8, !tbaa !3
  %9 = add i32 %8, -2
  %or.cond = icmp ult i32 %9, 511
  br i1 %or.cond, label %10, label %36

10:                                               ; preds = %5
  %11 = getelementptr inbounds nuw i8, ptr %1, i64 8
  %12 = load i32, ptr %11, align 8, !tbaa !11
  %13 = icmp eq i32 %12, %8
  br i1 %13, label %14, label %36

14:                                               ; preds = %10
  %15 = getelementptr inbounds nuw i8, ptr %2, i64 8
  %16 = load i32, ptr %15, align 8, !tbaa !11
  %17 = icmp eq i32 %16, %8
  br i1 %17, label %18, label %36

18:                                               ; preds = %14
  %19 = tail call ptr @bn_wexpand(ptr noundef %0, i32 noundef %8) #5
  %20 = icmp eq ptr %19, null
  br i1 %20, label %56, label %21

21:                                               ; preds = %18
  %22 = load ptr, ptr %0, align 8, !tbaa !12
  %23 = load ptr, ptr %1, align 8, !tbaa !12
  %24 = load ptr, ptr %2, align 8, !tbaa !12
  %25 = load ptr, ptr %6, align 8, !tbaa !13
  %26 = getelementptr inbounds nuw i8, ptr %3, i64 80
  %27 = tail call i32 @bn_mul_mont(ptr noundef %22, ptr noundef %23, ptr noundef %24, ptr noundef %25, ptr noundef nonnull %26, i32 noundef %8) #5
  %.not = icmp eq i32 %27, 0
  br i1 %.not, label %36, label %28

28:                                               ; preds = %21
  %29 = getelementptr inbounds nuw i8, ptr %1, i64 16
  %30 = load i32, ptr %29, align 8, !tbaa !14
  %31 = getelementptr inbounds nuw i8, ptr %2, i64 16
  %32 = load i32, ptr %31, align 8, !tbaa !14
  %33 = xor i32 %32, %30
  %34 = getelementptr inbounds nuw i8, ptr %0, i64 16
  store i32 %33, ptr %34, align 8, !tbaa !14
  %35 = getelementptr inbounds nuw i8, ptr %0, i64 8
  store i32 %8, ptr %35, align 8, !tbaa !11
  br label %56

36:                                               ; preds = %21, %14, %10, %5
  %37 = getelementptr inbounds nuw i8, ptr %1, i64 8
  %38 = load i32, ptr %37, align 8, !tbaa !11
  %39 = getelementptr inbounds nuw i8, ptr %2, i64 8
  %40 = load i32, ptr %39, align 8, !tbaa !11
  %41 = add nsw i32 %40, %38
  %42 = shl nsw i32 %8, 1
  %43 = icmp sgt i32 %41, %42
  br i1 %43, label %56, label %44

44:                                               ; preds = %36
  tail call void @BN_CTX_start(ptr noundef %4) #5
  %45 = tail call ptr @BN_CTX_get(ptr noundef %4) #5
  %46 = icmp eq ptr %45, null
  br i1 %46, label %55, label %47

47:                                               ; preds = %44
  %48 = icmp eq ptr %1, %2
  br i1 %48, label %49, label %51

49:                                               ; preds = %47
  %50 = tail call i32 @bn_sqr_fixed_top(ptr noundef nonnull %45, ptr noundef nonnull %1, ptr noundef %4) #5
  %.not48 = icmp eq i32 %50, 0
  br i1 %.not48, label %55, label %53

51:                                               ; preds = %47
  %52 = tail call i32 @bn_mul_fixed_top(ptr noundef nonnull %45, ptr noundef nonnull %1, ptr noundef nonnull %2, ptr noundef %4) #5
  %.not47 = icmp eq i32 %52, 0
  br i1 %.not47, label %55, label %53

53:                                               ; preds = %51, %49
  %54 = tail call fastcc i32 @bn_from_montgomery_word(ptr noundef %0, ptr noundef %45, ptr noundef nonnull %3)
  br label %55

55:                                               ; preds = %53, %51, %49, %44
  %.042 = phi i32 [ 0, %44 ], [ 0, %49 ], [ 0, %51 ], [ %54, %53 ]
  tail call void @BN_CTX_end(ptr noundef %4) #5
  br label %56

56:                                               ; preds = %36, %18, %55, %28
  %.0 = phi i32 [ 1, %28 ], [ %.042, %55 ], [ 0, %18 ], [ 0, %36 ]
  ret i32 %.0
}